Certificate:
    Data:
        Version: 3 (0x2)
        Serial Number: 1 (0x1)
        Signature Algorithm: sha1WithRSAEncryption
        Issuer: C=US, ST=AZ, L=Scottsdale, O=3DEX, CN=3DEX CA/emailAddress=johnw@3dex.com
        Validity
            Not Before: Apr 28 04:53:51 2009 GMT
            Not After : Apr 26 04:53:51 2019 GMT
        Subject: C=US, ST=AZ, L=Scottsdale, O=3DEX, CN=abcvpn/emailAddress=johnw@3dex.com
        Subject Public Key Info:
            Public Key Algorithm: rsaEncryption
            RSA Public Key: (2048 bit)
                Modulus (2048 bit):
                    00:a4:96:ab:ca:f7:e9:af:a9:55:91:c3:ad:dd:1a:
                    99:41:c9:ef:59:66:35:3d:e5:83:26:c8:0f:89:15:
                    b6:19:7e:a3:aa:c5:a5:b0:ff:18:c5:d4:0c:a0:7a:
                    e4:b5:b3:8a:11:0e:5b:1f:3c:d8:50:ab:d4:d0:24:
                    40:ac:15:2b:bf:c9:27:f4:ed:6c:e5:fd:cc:5c:12:
                    66:2e:60:d6:98:68:d2:9a:7e:78:b7:2b:74:94:e9:
                    7b:88:48:2d:75:c8:7c:a1:21:d4:9f:3b:74:b9:6c:
                    5a:d7:2e:84:df:bc:c8:e8:03:fc:12:04:fe:4b:b9:
                    8b:56:de:52:a6:82:b2:e5:9b:ce:f1:62:ba:21:cd:
                    10:1a:6c:42:6f:d0:60:a4:23:7b:e3:aa:2e:85:3e:
                    a9:63:0d:59:90:d4:c9:0a:f7:b4:ec:aa:c2:96:64:
                    1c:22:c6:4b:da:48:b9:0d:e0:d0:16:ff:66:be:bc:
                    d8:e2:d9:ae:c6:0b:b7:98:4a:df:47:9c:69:90:c5:
                    5e:d5:4a:97:e3:d5:ae:e8:ee:eb:40:91:91:8c:a2:
                    81:ba:60:9c:6d:a3:cb:d4:37:04:9d:0a:a4:1f:c9:
                    ba:97:35:76:01:17:ab:a2:21:f9:37:5e:61:98:c5:
                    be:e3:b2:76:6c:97:6d:86:00:30:a2:58:f1:af:c5:
                    39:89
                Exponent: 65537 (0x10001)
        X509v3 extensions:
            X509v3 Basic Constraints: 
                CA:FALSE
            Netscape Cert Type: 
                SSL Server
            Netscape Comment: 
                Easy-RSA Generated Server Certificate
            X509v3 Subject Key Identifier: 
                43:5A:E6:D8:AA:D1:E0:3D:9B:64:DA:88:37:28:DE:B2:E0:BC:C4:BB
            X509v3 Authority Key Identifier: 
                keyid:CB:7B:48:3F:BF:6C:E0:1F:D9:BD:AF:BB:24:07:66:22:1E:90:3E:79
                DirName:/C=US/ST=AZ/L=Scottsdale/O=3DEX/CN=3DEX CA/emailAddress=johnw@3dex.com
                serial:F9:20:07:AB:40:BD:06:8E

            X509v3 Extended Key Usage: 
                TLS Web Server Authentication
            X509v3 Key Usage: 
                Digital Signature, Key Encipherment
    Signature Algorithm: sha1WithRSAEncryption
        3d:12:6a:49:ad:95:6a:61:de:4a:ae:82:db:14:70:4b:66:72:
        e3:19:ed:48:2f:e8:5c:7c:76:8a:94:76:87:d6:1e:b5:6f:47:
        bd:46:b3:c0:7c:5b:15:0b:ea:b2:15:2b:59:7e:bc:c4:ea:99:
        27:34:74:56:43:41:2b:58:dd:55:6e:c9:a6:26:8f:6d:9c:d3:
        69:1f:17:72:bb:58:2f:03:b8:1e:3a:64:8e:ba:2f:26:2f:31:
        bd:c5:cb:de:07:33:68:7f:1d:89:21:41:5c:8d:ee:18:b9:ce:
        7f:17:c6:37:0d:61:5b:ef:6d:f1:1a:7a:93:fe:f6:b3:c6:ea:
        df:e6:3d:d2:90:a6:f9:68:41:7f:33:2d:a5:7c:ab:a0:93:97:
        6b:f3:73:d6:ae:55:15:0c:da:dd:a3:06:6e:e2:38:99:05:a6:
        af:b1:9f:a5:4d:b0:02:27:d0:c1:c2:98:25:79:fd:69:42:76:
        75:88:37:be:cb:24:a9:d7:0c:ac:4e:38:6d:54:d5:96:fc:49:
        fc:c4:e4:42:e3:0f:2e:9d:d8:a8:cf:08:54:cf:b8:a8:b1:c6:
        67:a3:cd:bb:e9:39:90:a1:ce:7a:aa:88:db:cc:2b:ca:4d:23:
        b1:30:79:f2:44:d4:ba:18:1c:98:2c:8e:45:dc:ee:7e:a3:46:
        f1:76:47:a0
-----BEGIN CERTIFICATE-----
MIIElzCCA3+gAwIBAgIBATANBgkqhkiG9w0BAQUFADBvMQswCQYDVQQGEwJVUzEL
MAkGA1UECBMCQVoxEzARBgNVBAcTClNjb3R0c2RhbGUxDTALBgNVBAoTBDNERVgx
EDAOBgNVBAMTBzNERVggQ0ExHTAbBgkqhkiG9w0BCQEWDmpvaG53QDNkZXguY29t
MB4XDTA5MDQyODA0NTM1MVoXDTE5MDQyNjA0NTM1MVowbjELMAkGA1UEBhMCVVMx
CzAJBgNVBAgTAkFaMRMwEQYDVQQHEwpTY290dHNkYWxlMQ0wCwYDVQQKEwQzREVY
MQ8wDQYDVQQDEwZhYmN2cG4xHTAbBgkqhkiG9w0BCQEWDmpvaG53QDNkZXguY29t
MIIBIjANBgkqhkiG9w0BAQEFAAOCAQ8AMIIBCgKCAQEApJaryvfpr6lVkcOt3RqZ
QcnvWWY1PeWDJsgPiRW2GX6jqsWlsP8YxdQMoHrktbOKEQ5bHzzYUKvU0CRArBUr
v8kn9O1s5f3MXBJmLmDWmGjSmn54tyt0lOl7iEgtdch8oSHUnzt0uWxa1y6E37zI
6AP8EgT+S7mLVt5SpoKy5ZvO8WK6Ic0QGmxCb9BgpCN746ouhT6pYw1ZkNTJCve0
7KrClmQcIsZL2ki5DeDQFv9mvrzY4tmuxgu3mErfR5xpkMVe1UqX49Wu6O7rQJGR
jKKBumCcbaPL1DcEnQqkH8m6lzV2AReroiH5N15hmMW+47J2bJdthgAwoljxr8U5
iQIDAQABo4IBPTCCATkwCQYDVR0TBAIwADARBglghkgBhvhCAQEEBAMCBkAwNAYJ
YIZIAYb4QgENBCcWJUVhc3ktUlNBIEdlbmVyYXRlZCBTZXJ2ZXIgQ2VydGlmaWNh
dGUwHQYDVR0OBBYEFENa5tiq0eA9m2TaiDco3rLgvMS7MIGhBgNVHSMEgZkwgZaA
FMt7SD+/bOAf2b2vuyQHZiIekD55oXOkcTBvMQswCQYDVQQGEwJVUzELMAkGA1UE
CBMCQVoxEzARBgNVBAcTClNjb3R0c2RhbGUxDTALBgNVBAoTBDNERVgxEDAOBgNV
BAMTBzNERVggQ0ExHTAbBgkqhkiG9w0BCQEWDmpvaG53QDNkZXguY29tggkA+SAH
q0C9Bo4wEwYDVR0lBAwwCgYIKwYBBQUHAwEwCwYDVR0PBAQDAgWgMA0GCSqGSIb3
DQEBBQUAA4IBAQA9EmpJrZVqYd5KroLbFHBLZnLjGe1IL+hcfHaKlHaH1h61b0e9
RrPAfFsVC+qyFStZfrzE6pknNHRWQ0ErWN1VbsmmJo9tnNNpHxdyu1gvA7geOmSO
ui8mLzG9xcveBzNofx2JIUFcje4Yuc5/F8Y3DWFb723xGnqT/vazxurf5j3SkKb5
aEF/My2lfKugk5dr83PWrlUVDNrdowZu4jiZBaavsZ+lTbACJ9DBwpglef1pQnZ1
iDe+yySp1wysTjhtVNWW/En8xORC4w8undiozwhUz7ioscZno8276TmQoc56qojb
zCvKTSOxMHnyRNS6GByYLI5F3O5+o0bxdkeg
-----END CERTIFICATE-----
