Certificate:
    Data:
        Version: 3 (0x2)
        Serial Number: 2 (0x2)
        Signature Algorithm: sha1WithRSAEncryption
        Issuer: C=US, ST=AZ, L=Scottsdale, O=3DEX, CN=3DEX CA/emailAddress=johnw@3dex.com
        Validity
            Not Before: Apr 28 04:54:06 2009 GMT
            Not After : Apr 26 04:54:06 2019 GMT
        Subject: C=US, ST=AZ, L=Scottsdale, O=3DEX, CN=johnw/emailAddress=johnw@3dex.com
        Subject Public Key Info:
            Public Key Algorithm: rsaEncryption
            RSA Public Key: (2048 bit)
                Modulus (2048 bit):
                    00:e1:7c:3e:01:b4:2f:5d:48:bb:77:7c:5b:db:30:
                    85:a2:66:05:f1:05:29:04:11:3d:9c:31:72:97:ff:
                    11:ad:a5:f7:92:71:91:a9:4f:07:32:0f:54:fc:c6:
                    82:d4:5e:d9:f9:70:5c:0a:7c:53:89:d5:96:0f:98:
                    42:e4:2e:f9:d4:b2:f0:ae:ae:02:82:5c:5c:74:07:
                    5f:98:7a:91:17:e9:a1:d4:7d:56:3c:e2:45:08:98:
                    21:1a:ef:2d:2b:32:ce:38:5f:27:37:1d:9d:43:0d:
                    75:64:be:07:cd:90:97:ed:c6:31:56:e0:0c:79:1c:
                    b6:f6:9e:81:92:f6:cc:64:c2:9b:60:92:cf:f5:9d:
                    6e:bb:28:2d:f5:fc:45:8a:01:cd:72:ff:4d:2d:f9:
                    77:22:00:f0:83:54:5f:32:f6:b7:c4:1d:99:5b:20:
                    61:c7:55:58:cf:c9:62:12:24:14:bd:d2:11:5f:cf:
                    b1:de:32:d7:21:5e:13:17:78:66:a4:5d:e5:f3:a6:
                    c9:58:23:25:25:ac:a5:71:06:71:af:56:19:b8:fa:
                    a0:7b:bb:71:93:13:b7:ad:1f:3a:94:81:27:59:6f:
                    17:50:ce:e5:d8:84:46:33:8a:98:23:e2:d4:00:6d:
                    53:d9:0d:99:a5:71:65:66:2a:59:49:db:b2:e5:91:
                    aa:ab
                Exponent: 65537 (0x10001)
        X509v3 extensions:
            X509v3 Basic Constraints: 
                CA:FALSE
            Netscape Comment: 
                Easy-RSA Generated Certificate
            X509v3 Subject Key Identifier: 
                68:C2:66:98:26:4C:A4:0F:C5:BB:BE:43:49:BA:CA:44:E7:6B:18:F9
            X509v3 Authority Key Identifier: 
                keyid:CB:7B:48:3F:BF:6C:E0:1F:D9:BD:AF:BB:24:07:66:22:1E:90:3E:79
                DirName:/C=US/ST=AZ/L=Scottsdale/O=3DEX/CN=3DEX CA/emailAddress=johnw@3dex.com
                serial:F9:20:07:AB:40:BD:06:8E

            X509v3 Extended Key Usage: 
                TLS Web Client Authentication
            X509v3 Key Usage: 
                Digital Signature
    Signature Algorithm: sha1WithRSAEncryption
        7f:e2:10:53:2b:c3:f8:b9:71:55:b7:08:f5:81:66:8b:98:26:
        59:86:77:c7:3b:e8:5b:82:19:02:83:61:6d:80:d3:9b:88:a4:
        cc:5b:e0:36:46:f7:9e:37:b7:46:d9:dc:c9:1b:29:b3:f6:e2:
        30:22:20:86:04:ad:04:47:40:84:56:cb:bf:c7:cd:3a:15:80:
        30:9d:f1:1e:29:f9:b2:92:59:d3:70:de:54:13:26:d7:45:ed:
        8e:1f:72:2c:af:a1:8d:a6:05:3e:77:6d:8d:df:82:38:2b:7a:
        a2:54:db:8c:c1:0d:f2:96:79:98:d3:3e:68:81:76:ce:49:40:
        e9:ee:bc:20:23:fd:27:ef:b2:0a:7c:21:77:c1:cc:8f:75:28:
        e2:aa:3f:cd:1c:cd:5b:1c:31:36:c6:b7:41:c3:1d:d0:bf:74:
        ef:52:b0:3d:d4:e1:a7:b9:8d:2e:f2:4e:f4:05:d7:3b:a3:85:
        81:c4:c0:52:f6:9c:23:88:21:1c:a4:e5:d8:91:a1:79:68:d9:
        b8:71:fe:79:c1:3c:d9:ed:7e:10:35:b2:2a:98:fa:6b:2e:18:
        2a:80:26:7e:93:12:ae:a1:26:5b:45:09:f4:02:f3:49:96:d2:
        d8:52:34:5c:23:06:64:b8:89:16:a9:c0:eb:5a:43:64:88:eb:
        71:d9:9c:39
-----BEGIN CERTIFICATE-----
MIIEfDCCA2SgAwIBAgIBAjANBgkqhkiG9w0BAQUFADBvMQswCQYDVQQGEwJVUzEL
MAkGA1UECBMCQVoxEzARBgNVBAcTClNjb3R0c2RhbGUxDTALBgNVBAoTBDNERVgx
EDAOBgNVBAMTBzNERVggQ0ExHTAbBgkqhkiG9w0BCQEWDmpvaG53QDNkZXguY29t
MB4XDTA5MDQyODA0NTQwNloXDTE5MDQyNjA0NTQwNlowbTELMAkGA1UEBhMCVVMx
CzAJBgNVBAgTAkFaMRMwEQYDVQQHEwpTY290dHNkYWxlMQ0wCwYDVQQKEwQzREVY
MQ4wDAYDVQQDEwVqb2hudzEdMBsGCSqGSIb3DQEJARYOam9obndAM2RleC5jb20w
ggEiMA0GCSqGSIb3DQEBAQUAA4IBDwAwggEKAoIBAQDhfD4BtC9dSLt3fFvbMIWi
ZgXxBSkEET2cMXKX/xGtpfeScZGpTwcyD1T8xoLUXtn5cFwKfFOJ1ZYPmELkLvnU
svCurgKCXFx0B1+YepEX6aHUfVY84kUImCEa7y0rMs44Xyc3HZ1DDXVkvgfNkJft
xjFW4Ax5HLb2noGS9sxkwptgks/1nW67KC31/EWKAc1y/00t+XciAPCDVF8y9rfE
HZlbIGHHVVjPyWISJBS90hFfz7HeMtchXhMXeGakXeXzpslYIyUlrKVxBnGvVhm4
+qB7u3GTE7etHzqUgSdZbxdQzuXYhEYzipgj4tQAbVPZDZmlcWVmKllJ27Llkaqr
AgMBAAGjggEjMIIBHzAJBgNVHRMEAjAAMC0GCWCGSAGG+EIBDQQgFh5FYXN5LVJT
QSBHZW5lcmF0ZWQgQ2VydGlmaWNhdGUwHQYDVR0OBBYEFGjCZpgmTKQPxbu+Q0m6
ykTnaxj5MIGhBgNVHSMEgZkwgZaAFMt7SD+/bOAf2b2vuyQHZiIekD55oXOkcTBv
MQswCQYDVQQGEwJVUzELMAkGA1UECBMCQVoxEzARBgNVBAcTClNjb3R0c2RhbGUx
DTALBgNVBAoTBDNERVgxEDAOBgNVBAMTBzNERVggQ0ExHTAbBgkqhkiG9w0BCQEW
DmpvaG53QDNkZXguY29tggkA+SAHq0C9Bo4wEwYDVR0lBAwwCgYIKwYBBQUHAwIw
CwYDVR0PBAQDAgeAMA0GCSqGSIb3DQEBBQUAA4IBAQB/4hBTK8P4uXFVtwj1gWaL
mCZZhnfHO+hbghkCg2FtgNObiKTMW+A2RveeN7dG2dzJGymz9uIwIiCGBK0ER0CE
Vsu/x806FYAwnfEeKfmyklnTcN5UEybXRe2OH3Isr6GNpgU+d22N34I4K3qiVNuM
wQ3ylnmY0z5ogXbOSUDp7rwgI/0n77IKfCF3wcyPdSjiqj/NHM1bHDE2xrdBwx3Q
v3TvUrA91OGnuY0u8k70Bdc7o4WBxMBS9pwjiCEcpOXYkaF5aNm4cf55wTzZ7X4Q
NbIqmPprLhgqgCZ+kxKuoSZbRQn0AvNJltLYUjRcIwZkuIkWqcDrWkNkiOtx2Zw5
-----END CERTIFICATE-----
