Certificate:
    Data:
        Version: 3 (0x2)
        Serial Number: 3 (0x3)
        Signature Algorithm: sha1WithRSAEncryption
        Issuer: C=US, ST=AZ, L=Scottsdale, O=3DEX, CN=3DEX CA/emailAddress=johnw@3dex.com
        Validity
            Not Before: Apr 28 22:07:54 2009 GMT
            Not After : Apr 26 22:07:54 2019 GMT
        Subject: C=US, ST=AZ, L=Scottsdale, O=3DEX, CN=adinath/emailAddress=adinath@acciente.com
        Subject Public Key Info:
            Public Key Algorithm: rsaEncryption
            RSA Public Key: (2048 bit)
                Modulus (2048 bit):
                    00:b3:89:87:78:21:e6:0e:8f:a2:17:3e:7d:74:f1:
                    f9:9f:a7:f6:e4:86:6d:50:18:df:0d:e7:b7:ce:6d:
                    23:72:05:f0:7c:a7:79:95:e0:83:57:4f:ad:73:5c:
                    ba:2f:95:04:2a:cd:02:7e:6a:4c:20:1b:3f:ee:55:
                    f7:43:12:66:47:56:8e:4d:2d:69:7a:b6:20:04:13:
                    e7:8b:8a:0f:3c:df:5d:f2:c6:07:82:d8:94:67:23:
                    38:93:a3:11:c2:db:bd:03:ca:60:da:09:0d:d4:f4:
                    1b:b4:9d:c2:b0:ff:d6:56:23:fb:cf:87:22:d2:0c:
                    e7:3f:90:59:08:41:17:01:29:9b:65:50:48:64:30:
                    98:9a:c8:7e:3f:e1:d4:19:d6:4b:47:25:42:43:0f:
                    14:aa:8c:4d:ff:3d:1b:a3:f0:8f:d6:61:ab:58:80:
                    bd:c2:8f:4b:77:29:a9:a6:e4:fc:d2:d0:3a:3d:a7:
                    cd:fb:d6:c1:6d:ad:63:fe:d8:bc:27:9e:9c:f5:ef:
                    20:a6:85:c2:a6:63:d5:98:eb:dd:3b:96:59:16:5a:
                    79:89:ca:ce:ef:b4:8a:8a:95:c7:60:cd:cf:c2:4f:
                    21:e3:53:12:22:01:b5:82:f5:c7:8a:73:dd:4e:d1:
                    14:a7:4e:9e:c2:cf:24:46:da:33:28:ff:ef:6c:b8:
                    fb:f9
                Exponent: 65537 (0x10001)
        X509v3 extensions:
            X509v3 Basic Constraints: 
                CA:FALSE
            Netscape Comment: 
                Easy-RSA Generated Certificate
            X509v3 Subject Key Identifier: 
                F6:89:40:7A:7F:27:2C:CF:9D:8D:9B:BC:4D:9E:E5:82:EB:89:24:14
            X509v3 Authority Key Identifier: 
                keyid:CB:7B:48:3F:BF:6C:E0:1F:D9:BD:AF:BB:24:07:66:22:1E:90:3E:79
                DirName:/C=US/ST=AZ/L=Scottsdale/O=3DEX/CN=3DEX CA/emailAddress=johnw@3dex.com
                serial:F9:20:07:AB:40:BD:06:8E

            X509v3 Extended Key Usage: 
                TLS Web Client Authentication
            X509v3 Key Usage: 
                Digital Signature
    Signature Algorithm: sha1WithRSAEncryption
        7f:23:db:8d:5b:7f:6d:7a:8f:51:8a:23:60:7f:e6:d4:57:c6:
        01:4a:02:bd:79:a6:13:14:c4:7e:63:96:f9:6a:cf:d7:d1:28:
        cc:89:79:a9:b7:db:cf:14:3b:8f:22:4b:d1:f2:0c:d5:38:55:
        cf:5f:13:e7:55:e9:32:43:d0:29:f7:45:1b:e5:8c:09:bc:01:
        0f:c3:5f:bc:a1:22:ba:86:07:60:37:b5:6d:c6:0e:71:d6:a4:
        d5:95:ef:2c:3e:0a:c0:bb:23:bd:44:b0:61:38:99:5b:06:64:
        fc:58:16:f0:02:9c:2d:56:21:05:99:e3:a2:f3:1a:a9:4a:3a:
        81:ad:4a:d8:e8:e2:3a:17:83:c2:fc:b9:93:a8:99:38:94:c1:
        96:c9:db:db:0c:ff:1b:83:96:11:ad:ec:47:32:a2:19:46:3c:
        d6:59:5d:24:f9:14:37:52:61:fe:c5:54:ca:4e:05:50:59:a2:
        4f:f4:77:d1:97:ca:ce:5a:c4:86:3f:66:cf:b4:42:18:ee:37:
        1c:4d:e3:40:f2:66:52:a8:6f:de:1c:ce:cd:59:45:61:85:86:
        f2:25:06:43:80:d9:61:7f:bb:93:7f:60:40:07:66:25:75:c8:
        27:eb:2d:30:62:3a:2b:e9:99:18:48:66:3b:5a:f9:18:23:c7:
        a2:bc:4b:9e
-----BEGIN CERTIFICATE-----
MIIEhDCCA2ygAwIBAgIBAzANBgkqhkiG9w0BAQUFADBvMQswCQYDVQQGEwJVUzEL
MAkGA1UECBMCQVoxEzARBgNVBAcTClNjb3R0c2RhbGUxDTALBgNVBAoTBDNERVgx
EDAOBgNVBAMTBzNERVggQ0ExHTAbBgkqhkiG9w0BCQEWDmpvaG53QDNkZXguY29t
MB4XDTA5MDQyODIyMDc1NFoXDTE5MDQyNjIyMDc1NFowdTELMAkGA1UEBhMCVVMx
CzAJBgNVBAgTAkFaMRMwEQYDVQQHEwpTY290dHNkYWxlMQ0wCwYDVQQKEwQzREVY
MRAwDgYDVQQDEwdhZGluYXRoMSMwIQYJKoZIhvcNAQkBFhRhZGluYXRoQGFjY2ll
bnRlLmNvbTCCASIwDQYJKoZIhvcNAQEBBQADggEPADCCAQoCggEBALOJh3gh5g6P
ohc+fXTx+Z+n9uSGbVAY3w3nt85tI3IF8HyneZXgg1dPrXNcui+VBCrNAn5qTCAb
P+5V90MSZkdWjk0taXq2IAQT54uKDzzfXfLGB4LYlGcjOJOjEcLbvQPKYNoJDdT0
G7SdwrD/1lYj+8+HItIM5z+QWQhBFwEpm2VQSGQwmJrIfj/h1BnWS0clQkMPFKqM
Tf89G6Pwj9Zhq1iAvcKPS3cpqabk/NLQOj2nzfvWwW2tY/7YvCeenPXvIKaFwqZj
1Zjr3TuWWRZaeYnKzu+0ioqVx2DNz8JPIeNTEiIBtYL1x4pz3U7RFKdOnsLPJEba
Myj/72y4+/kCAwEAAaOCASMwggEfMAkGA1UdEwQCMAAwLQYJYIZIAYb4QgENBCAW
HkVhc3ktUlNBIEdlbmVyYXRlZCBDZXJ0aWZpY2F0ZTAdBgNVHQ4EFgQU9olAen8n
LM+djZu8TZ7lguuJJBQwgaEGA1UdIwSBmTCBloAUy3tIP79s4B/Zva+7JAdmIh6Q
Pnmhc6RxMG8xCzAJBgNVBAYTAlVTMQswCQYDVQQIEwJBWjETMBEGA1UEBxMKU2Nv
dHRzZGFsZTENMAsGA1UEChMEM0RFWDEQMA4GA1UEAxMHM0RFWCBDQTEdMBsGCSqG
SIb3DQEJARYOam9obndAM2RleC5jb22CCQD5IAerQL0GjjATBgNVHSUEDDAKBggr
BgEFBQcDAjALBgNVHQ8EBAMCB4AwDQYJKoZIhvcNAQEFBQADggEBAH8j241bf216
j1GKI2B/5tRXxgFKAr15phMUxH5jlvlqz9fRKMyJeam3288UO48iS9HyDNU4Vc9f
E+dV6TJD0Cn3RRvljAm8AQ/DX7yhIrqGB2A3tW3GDnHWpNWV7yw+CsC7I71EsGE4
mVsGZPxYFvACnC1WIQWZ46LzGqlKOoGtStjo4joXg8L8uZOomTiUwZbJ29sM/xuD
lhGt7EcyohlGPNZZXST5FDdSYf7FVMpOBVBZok/0d9GXys5axIY/Zs+0QhjuNxxN
40DyZlKob94czs1ZRWGFhvIlBkOA2WF/u5N/YEAHZiV1yCfrLTBiOivpmRhIZjta
+Rgjx6K8S54=
-----END CERTIFICATE-----
